(dp1
S'RaagamName'
p2
S'Desh'
p3
sS'RaagamMelakartha'
p4
ccopy_reg
_reconstructor
p5
(cMelakartha
Melakartha
p6
c__builtin__
object
p7
NtRp8
(dp9
S'Ni'
p10
g5
(cSwaram
Swaram
p11
g7
NtRp12
(dp13
S'swarasthanam'
p14
I3
sS'swaramname'
p15
S'N'
sbsS'Ma'
p16
g5
(g11
g7
NtRp17
(dp18
g14
I1
sg15
S'M'
sbsS'Group3'
p19
(lp20
I13
aI14
aI15
aI16
aI17
aI18
asS'SwaramList'
p21
(lp22
g5
(g11
g7
NtRp23
(dp24
g14
I1
sg15
S'S'
sbag5
(g11
g7
NtRp25
(dp26
g14
I2
sg15
S'R'
sbag5
(g11
g7
NtRp27
(dp28
g14
I3
sg15
S'G'
sbag17
ag5
(g11
g7
NtRp29
(dp30
g14
I1
sg15
S'P'
sbag5
(g11
g7
NtRp31
(dp32
g14
I2
sg15
S'D'
sbag12
asS'MelakarthaNum'
p33
I29
sS'Group6'
p34
(lp35
I31
aI32
aI33
aI34
aI35
aI36
asS'Da'
p36
g31
sS'Group5'
p37
(lp38
I25
aI26
aI27
aI28
aI29
aI30
asS'Group4'
p39
(lp40
I19
aI20
aI21
aI22
aI23
aI24
asS'Pa'
p41
g29
sS'Group1'
p42
(lp43
I1
aI2
aI3
aI4
aI5
aI6
asS'Ga'
p44
g27
sS'Group2'
p45
(lp46
I7
aI8
aI9
aI10
aI11
aI12
asS'Chakra'
p47
I5
sS'Sa'
p48
g23
sS'RaagaPosInChakra'
p49
I5
sS'Ri'
p50
g25
sbsS'ArohanamTex'
p51
S'$S \\: R_2 \\: M_1 \\: P \\: N_3 \\: \\HOct{S} \\:$'
p52
sS'Arohanam'
p53
(lp54
g23
ag25
ag17
ag29
ag5
(g11
g7
NtRp55
(dp56
g14
I3
sg15
S'N'
sbag23
asS'Avarohanam'
p57
(lp58
g23
ag5
(g11
g7
NtRp59
(dp60
g14
I2
sg15
S'N'
sbag31
ag29
ag17
ag27
ag25
ag23
asS'AvarohanamTex'
p61
S'$\\HOct{S} \\: N_2 \\: D_2 \\: P \\: M_1 \\: G_3 \\: R_2 \\: S \\: $'
p62
sS'AroandAvaroTex'
p63
S'Arohanam:  & $S \\: R_2 \\: M_1 \\: P \\: N_3 \\: \\HOct{S} \\:$\nAvarohanam: & $\\HOct{S} \\: N_2 \\: D_2 \\: P \\: M_1 \\: G_3 \\: R_2 \\: S \\: $\n'
p64
s.(dp1
S'RaagamName'
p2
S'Mohanam'
p3
sS'RaagamMelakartha'
p4
ccopy_reg
_reconstructor
p5
(cMelakartha
Melakartha
p6
c__builtin__
object
p7
NtRp8
(dp9
S'Ni'
p10
g5
(cSwaram
Swaram
p11
g7
NtRp12
(dp13
S'swarasthanam'
p14
I2
sS'swaramname'
p15
S'N'
sbsS'Ma'
p16
g5
(g11
g7
NtRp17
(dp18
g14
I1
sg15
S'M'
sbsS'Group3'
p19
(lp20
I13
aI14
aI15
aI16
aI17
aI18
asS'SwaramList'
p21
(lp22
g5
(g11
g7
NtRp23
(dp24
g14
I1
sg15
S'S'
sbag5
(g11
g7
NtRp25
(dp26
g14
I2
sg15
S'R'
sbag5
(g11
g7
NtRp27
(dp28
g14
I3
sg15
S'G'
sbag17
ag5
(g11
g7
NtRp29
(dp30
g14
I1
sg15
S'P'
sbag5
(g11
g7
NtRp31
(dp32
g14
I2
sg15
S'D'
sbag12
asS'MelakarthaNum'
p33
I28
sS'Group6'
p34
(lp35
I31
aI32
aI33
aI34
aI35
aI36
asS'Da'
p36
g31
sS'Group5'
p37
(lp38
I25
aI26
aI27
aI28
aI29
aI30
asS'Group4'
p39
(lp40
I19
aI20
aI21
aI22
aI23
aI24
asS'Pa'
p41
g29
sS'Group1'
p42
(lp43
I1
aI2
aI3
aI4
aI5
aI6
asS'Ga'
p44
g27
sS'Group2'
p45
(lp46
I7
aI8
aI9
aI10
aI11
aI12
asS'Chakra'
p47
I5
sS'Sa'
p48
g23
sS'RaagaPosInChakra'
p49
I4
sS'Ri'
p50
g25
sbsS'ArohanamTex'
p51
S'$S \\: R_2 \\: G_3 \\: P \\: D_2 \\: \\HOct{S} \\:$'
p52
sS'Arohanam'
p53
(lp54
g23
ag5
(g11
g7
NtRp55
(dp56
g14
I2
sg15
S'R'
sbag27
ag29
ag31
ag23
asS'Avarohanam'
p57
(lp58
g23
ag31
ag29
ag5
(g11
g7
NtRp59
(dp60
g14
I3
sg15
S'G'
sbag5
(g11
g7
NtRp61
(dp62
g14
I2
sg15
S'R'
sbag23
asS'AvarohanamTex'
p63
S'$\\HOct{S} \\: D_2 \\: P \\: G_3 \\: R_2 \\: S \\: $'
p64
sS'AroandAvaroTex'
p65
S'Arohanam:  & $S \\: R_2 \\: G_3 \\: P \\: D_2 \\: \\HOct{S} \\:$\nAvarohanam: & $\\HOct{S} \\: D_2 \\: P \\: G_3 \\: R_2 \\: S \\: $\n'
p66
s.