(dp1
S'LengthLaghu'
p2
I4
sS'SwarasPerAksharam'
p3
I4
sS'TaalamSplitUp'
p4
S'|00'
p5
sS'TabSpaceWidth'
p6
F0.23000000000000001
sS'TaalamFormalName'
p7
S'Chatusra Jathi Triputa Taalam'
p8
sS'NumberOfAksharam'
p9
I4
sS'TaalamName'
p10
S'Adi'
p11
s.